; ModuleID = '51/158.c'
source_filename = "51/158.c"
target datalayout = "e-m:e-p270:32:32-p271:32:32-p272:64:64-i64:64-f80:128-n8:16:32:64-S128"
target triple = "x86_64-pc-linux-gnu"

@.str = private unnamed_addr constant [5 x i8] c"%d%s\00", align 1
@.str.1 = private unnamed_addr constant [4 x i8] c"NO\0A\00", align 1
@.str.2 = private unnamed_addr constant [4 x i8] c"%d\0A\00", align 1
@.str.3 = private unnamed_addr constant [3 x i8] c"%c\00", align 1
@.str.4 = private unnamed_addr constant [2 x i8] c"\0A\00", align 1

; Function Attrs: noinline nounwind uwtable
define dso_local void @main() #0 {
  %1 = alloca [500 x i32], align 16
  %2 = alloca i32, align 4
  %3 = alloca i32, align 4
  %4 = alloca i32, align 4
  %5 = alloca i32, align 4
  %6 = alloca i32, align 4
  %7 = alloca i32, align 4
  %8 = alloca i32, align 4
  %9 = alloca i32, align 4
  %10 = alloca i32, align 4
  %11 = alloca [500 x i8], align 16
  %12 = alloca [500 x [500 x i8]], align 16
  %13 = bitcast [500 x i32]* %1 to i8*
  call void @llvm.memset.p0i8.i64(i8* align 16 %13, i8 0, i64 2000, i1 false)
  store i32 0, i32* %2, align 4
  store i32 0, i32* %3, align 4
  %14 = getelementptr inbounds [500 x i8], [500 x i8]* %11, i64 0, i64 0
  %15 = call i32 (i8*, ...) @__isoc99_scanf(i8* getelementptr inbounds ([5 x i8], [5 x i8]* @.str, i64 0, i64 0), i32* %4, i8* %14)
  %16 = getelementptr inbounds [500 x i8], [500 x i8]* %11, i64 0, i64 0
  %17 = call i64 @strlen(i8* %16) #4
  %18 = trunc i64 %17 to i32
  store i32 %18, i32* %5, align 4
  store i32 0, i32* %6, align 4
  br label %19

19:                                               ; preds = %113, %0
  %20 = load i32, i32* %6, align 4
  %21 = load i32, i32* %5, align 4
  %22 = load i32, i32* %4, align 4
  %23 = sub nsw i32 %21, %22
  %24 = icmp sle i32 %20, %23
  br i1 %24, label %25, label %116

25:                                               ; preds = %19
  store i32 0, i32* %9, align 4
  store i32 1, i32* %7, align 4
  br label %26

26:                                               ; preds = %79, %25
  %27 = load i32, i32* %7, align 4
  %28 = load i32, i32* %2, align 4
  %29 = icmp sle i32 %27, %28
  br i1 %29, label %30, label %82

30:                                               ; preds = %26
  store i32 0, i32* %10, align 4
  store i32 0, i32* %8, align 4
  br label %31

31:                                               ; preds = %54, %30
  %32 = load i32, i32* %8, align 4
  %33 = load i32, i32* %4, align 4
  %34 = icmp slt i32 %32, %33
  br i1 %34, label %35, label %57

35:                                               ; preds = %31
  %36 = load i32, i32* %7, align 4
  %37 = sext i32 %36 to i64
  %38 = getelementptr inbounds [500 x [500 x i8]], [500 x [500 x i8]]* %12, i64 0, i64 %37
  %39 = load i32, i32* %8, align 4
  %40 = sext i32 %39 to i64
  %41 = getelementptr inbounds [500 x i8], [500 x i8]* %38, i64 0, i64 %40
  %42 = load i8, i8* %41, align 1
  %43 = sext i8 %42 to i32
  %44 = load i32, i32* %6, align 4
  %45 = load i32, i32* %8, align 4
  %46 = add nsw i32 %44, %45
  %47 = sext i32 %46 to i64
  %48 = getelementptr inbounds [500 x i8], [500 x i8]* %11, i64 0, i64 %47
  %49 = load i8, i8* %48, align 1
  %50 = sext i8 %49 to i32
  %51 = icmp ne i32 %43, %50
  br i1 %51, label %52, label %53

52:                                               ; preds = %35
  store i32 1, i32* %10, align 4
  br label %57

53:                                               ; preds = %35
  br label %54

54:                                               ; preds = %53
  %55 = load i32, i32* %8, align 4
  %56 = add nsw i32 %55, 1
  store i32 %56, i32* %8, align 4
  br label %31

57:                                               ; preds = %52, %31
  %58 = load i32, i32* %10, align 4
  %59 = icmp eq i32 %58, 0
  br i1 %59, label %60, label %78

60:                                               ; preds = %57
  store i32 1, i32* %9, align 4
  %61 = load i32, i32* %7, align 4
  %62 = sext i32 %61 to i64
  %63 = getelementptr inbounds [500 x i32], [500 x i32]* %1, i64 0, i64 %62
  %64 = load i32, i32* %63, align 4
  %65 = add nsw i32 %64, 1
  store i32 %65, i32* %63, align 4
  %66 = load i32, i32* %7, align 4
  %67 = sext i32 %66 to i64
  %68 = getelementptr inbounds [500 x i32], [500 x i32]* %1, i64 0, i64 %67
  %69 = load i32, i32* %68, align 4
  %70 = load i32, i32* %3, align 4
  %71 = icmp sgt i32 %69, %70
  br i1 %71, label %72, label %77

72:                                               ; preds = %60
  %73 = load i32, i32* %7, align 4
  %74 = sext i32 %73 to i64
  %75 = getelementptr inbounds [500 x i32], [500 x i32]* %1, i64 0, i64 %74
  %76 = load i32, i32* %75, align 4
  store i32 %76, i32* %3, align 4
  br label %77

77:                                               ; preds = %72, %60
  br label %82

78:                                               ; preds = %57
  br label %79

79:                                               ; preds = %78
  %80 = load i32, i32* %7, align 4
  %81 = add nsw i32 %80, 1
  store i32 %81, i32* %7, align 4
  br label %26

82:                                               ; preds = %77, %26
  %83 = load i32, i32* %9, align 4
  %84 = icmp eq i32 %83, 0
  br i1 %84, label %85, label %112

85:                                               ; preds = %82
  %86 = load i32, i32* %2, align 4
  %87 = add nsw i32 %86, 1
  store i32 %87, i32* %2, align 4
  store i32 0, i32* %7, align 4
  br label %88

88:                                               ; preds = %105, %85
  %89 = load i32, i32* %7, align 4
  %90 = load i32, i32* %4, align 4
  %91 = icmp slt i32 %89, %90
  br i1 %91, label %92, label %108

92:                                               ; preds = %88
  %93 = load i32, i32* %6, align 4
  %94 = load i32, i32* %7, align 4
  %95 = add nsw i32 %93, %94
  %96 = sext i32 %95 to i64
  %97 = getelementptr inbounds [500 x i8], [500 x i8]* %11, i64 0, i64 %96
  %98 = load i8, i8* %97, align 1
  %99 = load i32, i32* %2, align 4
  %100 = sext i32 %99 to i64
  %101 = getelementptr inbounds [500 x [500 x i8]], [500 x [500 x i8]]* %12, i64 0, i64 %100
  %102 = load i32, i32* %7, align 4
  %103 = sext i32 %102 to i64
  %104 = getelementptr inbounds [500 x i8], [500 x i8]* %101, i64 0, i64 %103
  store i8 %98, i8* %104, align 1
  br label %105

105:                                              ; preds = %92
  %106 = load i32, i32* %7, align 4
  %107 = add nsw i32 %106, 1
  store i32 %107, i32* %7, align 4
  br label %88

108:                                              ; preds = %88
  %109 = load i32, i32* %2, align 4
  %110 = sext i32 %109 to i64
  %111 = getelementptr inbounds [500 x i32], [500 x i32]* %1, i64 0, i64 %110
  store i32 1, i32* %111, align 4
  br label %112

112:                                              ; preds = %108, %82
  br label %113

113:                                              ; preds = %112
  %114 = load i32, i32* %6, align 4
  %115 = add nsw i32 %114, 1
  store i32 %115, i32* %6, align 4
  br label %19

116:                                              ; preds = %19
  %117 = load i32, i32* %3, align 4
  %118 = icmp eq i32 %117, 0
  br i1 %118, label %119, label %121

119:                                              ; preds = %116
  %120 = call i32 (i8*, ...) @printf(i8* getelementptr inbounds ([4 x i8], [4 x i8]* @.str.1, i64 0, i64 0))
  br label %160

121:                                              ; preds = %116
  %122 = load i32, i32* %3, align 4
  %123 = call i32 (i8*, ...) @printf(i8* getelementptr inbounds ([4 x i8], [4 x i8]* @.str.2, i64 0, i64 0), i32 %122)
  store i32 1, i32* %6, align 4
  br label %124

124:                                              ; preds = %156, %121
  %125 = load i32, i32* %6, align 4
  %126 = load i32, i32* %2, align 4
  %127 = icmp sle i32 %125, %126
  br i1 %127, label %128, label %159

128:                                              ; preds = %124
  %129 = load i32, i32* %6, align 4
  %130 = sext i32 %129 to i64
  %131 = getelementptr inbounds [500 x i32], [500 x i32]* %1, i64 0, i64 %130
  %132 = load i32, i32* %131, align 4
  %133 = load i32, i32* %3, align 4
  %134 = icmp eq i32 %132, %133
  br i1 %134, label %135, label %155

135:                                              ; preds = %128
  store i32 0, i32* %7, align 4
  br label %136

136:                                              ; preds = %150, %135
  %137 = load i32, i32* %7, align 4
  %138 = load i32, i32* %4, align 4
  %139 = icmp slt i32 %137, %138
  br i1 %139, label %140, label %153

140:                                              ; preds = %136
  %141 = load i32, i32* %6, align 4
  %142 = sext i32 %141 to i64
  %143 = getelementptr inbounds [500 x [500 x i8]], [500 x [500 x i8]]* %12, i64 0, i64 %142
  %144 = load i32, i32* %7, align 4
  %145 = sext i32 %144 to i64
  %146 = getelementptr inbounds [500 x i8], [500 x i8]* %143, i64 0, i64 %145
  %147 = load i8, i8* %146, align 1
  %148 = sext i8 %147 to i32
  %149 = call i32 (i8*, ...) @printf(i8* getelementptr inbounds ([3 x i8], [3 x i8]* @.str.3, i64 0, i64 0), i32 %148)
  br label %150

150:                                              ; preds = %140
  %151 = load i32, i32* %7, align 4
  %152 = add nsw i32 %151, 1
  store i32 %152, i32* %7, align 4
  br label %136

153:                                              ; preds = %136
  %154 = call i32 (i8*, ...) @printf(i8* getelementptr inbounds ([2 x i8], [2 x i8]* @.str.4, i64 0, i64 0))
  br label %155

155:                                              ; preds = %153, %128
  br label %156

156:                                              ; preds = %155
  %157 = load i32, i32* %6, align 4
  %158 = add nsw i32 %157, 1
  store i32 %158, i32* %6, align 4
  br label %124

159:                                              ; preds = %124
  br label %160

160:                                              ; preds = %159, %119
  ret void
}

; Function Attrs: argmemonly nounwind willreturn
declare void @llvm.memset.p0i8.i64(i8* nocapture writeonly, i8, i64, i1 immarg) #1

declare dso_local i32 @__isoc99_scanf(i8*, ...) #2

; Function Attrs: nounwind readonly
declare dso_local i64 @strlen(i8*) #3

declare dso_local i32 @printf(i8*, ...) #2


!llvm.module.flags = !{!0}
!llvm.ident = !{!1}

!0 = !{i32 1, !"wchar_size", i32 4}
!1 = !{!"clang version 10.0.0-4ubuntu1 "}
